❯ cuobjdump -symbols /home/kwu/cupy-playground/3rdparty/sputnik/build/sputnik/spmm/CMakeFiles/cuda_spmm.dir/cuda_spmm.cu.cubin

symbols:
STT_FUNC         STB_LOCAL  STO_ENTRY      _ZN7sputnik48_GLOBAL__N__a430860f_15_cuda_spmm_cu_cc_6504ba7b6KernelINS_10SpmmConfigI7__half2NS_5half8ENS_5half4ELi8ELi32ELi8ELi4ELi4ELi1ELb0ELi8EEEEEviiiPKiPKNT_11ScalarValueES8_PKNS9_11ScalarIndexESC_PKfPSA_
STT_FUNC         STB_WEAK   STV_DEFAULT    $__internal_0_$__cuda_sm70_warpsync
STT_FUNC         STB_LOCAL  STO_ENTRY      _ZN7sputnik48_GLOBAL__N__a430860f_15_cuda_spmm_cu_cc_6504ba7b16KernelWithBoundsINS_10SpmmConfigI7__half2NS_5half8ENS_5half4ELi8ELi32ELi8ELi4ELi4ELi1ELb0ELi8EEEEEviiiPKiPKNT_11ScalarValueES8_PKNS9_11ScalarIndexESC_PKfPSA_
STT_FUNC         STB_WEAK   STV_DEFAULT    $__internal_1_$__cuda_sm70_warpsync
STT_FUNC         STB_LOCAL  STO_ENTRY      _ZN7sputnik48_GLOBAL__N__a430860f_15_cuda_spmm_cu_cc_6504ba7b6KernelINS_10SpmmConfigI7__half2NS_5half8ES4_Li16ELi32ELi8ELi2ELi4ELi1ELb0ELi8EEEEEviiiPKiPKNT_11ScalarValueES7_PKNS8_11ScalarIndexESB_PKfPS9_
STT_FUNC         STB_WEAK   STV_DEFAULT    $__internal_2_$__cuda_sm70_warpsync
STT_FUNC         STB_LOCAL  STO_ENTRY      _ZN7sputnik48_GLOBAL__N__a430860f_15_cuda_spmm_cu_cc_6504ba7b16KernelWithBoundsINS_10SpmmConfigI7__half2NS_5half8ES4_Li16ELi32ELi8ELi2ELi4ELi1ELb0ELi8EEEEEviiiPKiPKNT_11ScalarValueES7_PKNS8_11ScalarIndexESB_PKfPS9_
STT_FUNC         STB_WEAK   STV_DEFAULT    $__internal_3_$__cuda_sm70_warpsync
STT_FUNC         STB_LOCAL  STO_ENTRY      _ZN7sputnik48_GLOBAL__N__a430860f_15_cuda_spmm_cu_cc_6504ba7b6KernelINS_10SpmmConfigI7__half2NS_5half4ES4_Li8ELi32ELi8ELi4ELi4ELi1ELb0ELi8EEEEEviiiPKiPKNT_11ScalarValueES7_PKNS8_11ScalarIndexESB_PKfPS9_
STT_FUNC         STB_WEAK   STV_DEFAULT    $__internal_4_$__cuda_sm70_warpsync
STT_FUNC         STB_LOCAL  STO_ENTRY      _ZN7sputnik48_GLOBAL__N__a430860f_15_cuda_spmm_cu_cc_6504ba7b16KernelWithBoundsINS_10SpmmConfigI7__half2NS_5half4ES4_Li8ELi32ELi8ELi4ELi4ELi1ELb0ELi8EEEEEviiiPKiPKNT_11ScalarValueES7_PKNS8_11ScalarIndexESB_PKfPS9_
STT_FUNC         STB_WEAK   STV_DEFAULT    $__internal_5_$__cuda_sm70_warpsync
STT_FUNC         STB_LOCAL  STO_ENTRY      _ZN7sputnik48_GLOBAL__N__a430860f_15_cuda_spmm_cu_cc_6504ba7b6KernelINS_10SpmmConfigI7__half2NS_5half8ES4_Li8ELi32ELi16ELi4ELi4ELi1ELb0ELi8EEEEEviiiPKiPKNT_11ScalarValueES7_PKNS8_11ScalarIndexESB_PKfPS9_
STT_FUNC         STB_WEAK   STV_DEFAULT    $__internal_6_$__cuda_sm70_warpsync
STT_FUNC         STB_LOCAL  STO_ENTRY      _ZN7sputnik48_GLOBAL__N__a430860f_15_cuda_spmm_cu_cc_6504ba7b16KernelWithBoundsINS_10SpmmConfigI7__half2NS_5half8ES4_Li8ELi32ELi16ELi4ELi4ELi1ELb0ELi8EEEEEviiiPKiPKNT_11ScalarValueES7_PKNS8_11ScalarIndexESB_PKfPS9_
STT_FUNC         STB_WEAK   STV_DEFAULT    $__internal_7_$__cuda_sm70_warpsync
STT_FUNC         STB_LOCAL  STO_ENTRY      _ZN7sputnik48_GLOBAL__N__a430860f_15_cuda_spmm_cu_cc_6504ba7b6KernelINS_10SpmmConfigI7__half2NS_5half4ES3_Li2ELi32ELi16ELi16ELi4ELi1ELb0ELi8EEEEEviiiPKiPKNT_11ScalarValueES7_PKNS8_11ScalarIndexESB_PKfPS9_
STT_FUNC         STB_WEAK   STV_DEFAULT    $__internal_8_$__cuda_sm70_warpsync
STT_FUNC         STB_LOCAL  STO_ENTRY      _ZN7sputnik48_GLOBAL__N__a430860f_15_cuda_spmm_cu_cc_6504ba7b16KernelWithBoundsINS_10SpmmConfigI7__half2NS_5half4ES3_Li2ELi32ELi16ELi16ELi4ELi1ELb0ELi8EEEEEviiiPKiPKNT_11ScalarValueES7_PKNS8_11ScalarIndexESB_PKfPS9_
STT_FUNC         STB_WEAK   STV_DEFAULT    $__internal_9_$__cuda_sm70_warpsync
STT_FUNC         STB_LOCAL  STO_ENTRY      _ZN7sputnik48_GLOBAL__N__a430860f_15_cuda_spmm_cu_cc_6504ba7b6KernelINS_10SpmmConfigI7__half2NS_5half4ES4_Li4ELi32ELi16ELi8ELi4ELi1ELb0ELi8EEEEEviiiPKiPKNT_11ScalarValueES7_PKNS8_11ScalarIndexESB_PKfPS9_
STT_FUNC         STB_WEAK   STV_DEFAULT    $__internal_10_$__cuda_sm70_warpsync
STT_FUNC         STB_LOCAL  STO_ENTRY      _ZN7sputnik48_GLOBAL__N__a430860f_15_cuda_spmm_cu_cc_6504ba7b16KernelWithBoundsINS_10SpmmConfigI7__half2NS_5half4ES4_Li4ELi32ELi16ELi8ELi4ELi1ELb0ELi8EEEEEviiiPKiPKNT_11ScalarValueES7_PKNS8_11ScalarIndexESB_PKfPS9_
STT_FUNC         STB_WEAK   STV_DEFAULT    $__internal_11_$__cuda_sm70_warpsync
STT_FUNC         STB_LOCAL  STO_ENTRY      _ZN7sputnik48_GLOBAL__N__a430860f_15_cuda_spmm_cu_cc_6504ba7b6KernelINS_10SpmmConfigI7__half2NS_5half8ES4_Li4ELi32ELi32ELi8ELi4ELi1ELb0ELi8EEEEEviiiPKiPKNT_11ScalarValueES7_PKNS8_11ScalarIndexESB_PKfPS9_
STT_FUNC         STB_WEAK   STV_DEFAULT    $__internal_12_$__cuda_sm70_warpsync
STT_FUNC         STB_LOCAL  STO_ENTRY      _ZN7sputnik48_GLOBAL__N__a430860f_15_cuda_spmm_cu_cc_6504ba7b16KernelWithBoundsINS_10SpmmConfigI7__half2NS_5half8ES4_Li4ELi32ELi32ELi8ELi4ELi1ELb0ELi8EEEEEviiiPKiPKNT_11ScalarValueES7_PKNS8_11ScalarIndexESB_PKfPS9_
STT_FUNC         STB_WEAK   STV_DEFAULT    $__internal_13_$__cuda_sm70_warpsync
STT_FUNC         STB_LOCAL  STO_ENTRY      _ZN7sputnik48_GLOBAL__N__a430860f_15_cuda_spmm_cu_cc_6504ba7b6KernelINS_10SpmmConfigI7__half2S3_S3_Li1ELi32ELi32ELi32ELi4ELi1ELb0ELi8EEEEEviiiPKiPKNT_11ScalarValueES6_PKNS7_11ScalarIndexESA_PKfPS8_
STT_FUNC         STB_LOCAL  STO_ENTRY      _ZN7sputnik48_GLOBAL__N__a430860f_15_cuda_spmm_cu_cc_6504ba7b16KernelWithBoundsINS_10SpmmConfigI7__half2S3_S3_Li1ELi32ELi32ELi32ELi4ELi1ELb0ELi8EEEEEviiiPKiPKNT_11ScalarValueES6_PKNS7_11ScalarIndexESA_PKfPS8_
STT_FUNC         STB_LOCAL  STO_ENTRY      _ZN7sputnik48_GLOBAL__N__a430860f_15_cuda_spmm_cu_cc_6504ba7b6KernelINS_10SpmmConfigI7__half2NS_5half8ES4_Li4ELi32ELi64ELi8ELi4ELi1ELb0ELi8EEEEEviiiPKiPKNT_11ScalarValueES7_PKNS8_11ScalarIndexESB_PKfPS9_
STT_FUNC         STB_WEAK   STV_DEFAULT    $__internal_14_$__cuda_sm70_warpsync
STT_FUNC         STB_LOCAL  STO_ENTRY      _ZN7sputnik48_GLOBAL__N__a430860f_15_cuda_spmm_cu_cc_6504ba7b16KernelWithBoundsINS_10SpmmConfigI7__half2NS_5half8ES4_Li4ELi32ELi64ELi8ELi4ELi1ELb0ELi8EEEEEviiiPKiPKNT_11ScalarValueES7_PKNS8_11ScalarIndexESB_PKfPS9_
STT_FUNC         STB_WEAK   STV_DEFAULT    $__internal_15_$__cuda_sm70_warpsync
STT_FUNC         STB_LOCAL  STO_ENTRY      _ZN7sputnik48_GLOBAL__N__a430860f_15_cuda_spmm_cu_cc_6504ba7b6KernelINS_10SpmmConfigI7__half2NS_5half4ES4_Li2ELi32ELi64ELi16ELi4ELi1ELb0ELi8EEEEEviiiPKiPKNT_11ScalarValueES7_PKNS8_11ScalarIndexESB_PKfPS9_
STT_FUNC         STB_WEAK   STV_DEFAULT    $__internal_16_$__cuda_sm70_warpsync
STT_FUNC         STB_LOCAL  STO_ENTRY      _ZN7sputnik48_GLOBAL__N__a430860f_15_cuda_spmm_cu_cc_6504ba7b16KernelWithBoundsINS_10SpmmConfigI7__half2NS_5half4ES4_Li2ELi32ELi64ELi16ELi4ELi1ELb0ELi8EEEEEviiiPKiPKNT_11ScalarValueES7_PKNS8_11ScalarIndexESB_PKfPS9_
STT_FUNC         STB_WEAK   STV_DEFAULT    $__internal_17_$__cuda_sm70_warpsync
STT_FUNC         STB_LOCAL  STO_ENTRY      _ZN7sputnik48_GLOBAL__N__a430860f_15_cuda_spmm_cu_cc_6504ba7b6KernelINS_10SpmmConfigI7__half2S3_S3_Li1ELi32ELi64ELi32ELi4ELi1ELb0ELi8EEEEEviiiPKiPKNT_11ScalarValueES6_PKNS7_11ScalarIndexESA_PKfPS8_
STT_FUNC         STB_LOCAL  STO_ENTRY      _ZN7sputnik48_GLOBAL__N__a430860f_15_cuda_spmm_cu_cc_6504ba7b16KernelWithBoundsINS_10SpmmConfigI7__half2S3_S3_Li1ELi32ELi64ELi32ELi4ELi1ELb0ELi8EEEEEviiiPKiPKNT_11ScalarValueES6_PKNS7_11ScalarIndexESA_PKfPS8_
STT_FUNC         STB_LOCAL  STO_ENTRY      _ZN7sputnik48_GLOBAL__N__a430860f_15_cuda_spmm_cu_cc_6504ba7b6KernelINS_10SpmmConfigIf6float46float2Li8ELi32ELi8ELi4ELi4ELi1ELb0ELi8EEEEEviiiPKiPKNT_11ScalarValueES7_PKNS8_11ScalarIndexESB_PKfPS9_
STT_FUNC         STB_WEAK   STV_DEFAULT    $__internal_18_$__cuda_sm70_warpsync
STT_FUNC         STB_LOCAL  STO_ENTRY      _ZN7sputnik48_GLOBAL__N__a430860f_15_cuda_spmm_cu_cc_6504ba7b16KernelWithBoundsINS_10SpmmConfigIf6float46float2Li8ELi32ELi8ELi4ELi4ELi1ELb0ELi8EEEEEviiiPKiPKNT_11ScalarValueES7_PKNS8_11ScalarIndexESB_PKfPS9_
STT_FUNC         STB_WEAK   STV_DEFAULT    $__internal_19_$__cuda_sm70_warpsync
STT_FUNC         STB_LOCAL  STO_ENTRY      _ZN7sputnik48_GLOBAL__N__a430860f_15_cuda_spmm_cu_cc_6504ba7b6KernelINS_10SpmmConfigIf6float4S3_Li16ELi32ELi8ELi2ELi4ELi1ELb0ELi8EEEEEviiiPKiPKNT_11ScalarValueES6_PKNS7_11ScalarIndexESA_PKfPS8_
STT_FUNC         STB_WEAK   STV_DEFAULT    $__internal_20_$__cuda_sm70_warpsync
STT_FUNC         STB_LOCAL  STO_ENTRY      _ZN7sputnik48_GLOBAL__N__a430860f_15_cuda_spmm_cu_cc_6504ba7b16KernelWithBoundsINS_10SpmmConfigIf6float4S3_Li16ELi32ELi8ELi2ELi4ELi1ELb0ELi8EEEEEviiiPKiPKNT_11ScalarValueES6_PKNS7_11ScalarIndexESA_PKfPS8_
STT_FUNC         STB_WEAK   STV_DEFAULT    $__internal_21_$__cuda_sm70_warpsync
STT_FUNC         STB_LOCAL  STO_ENTRY      _ZN7sputnik48_GLOBAL__N__a430860f_15_cuda_spmm_cu_cc_6504ba7b6KernelINS_10SpmmConfigIf6float2S3_Li8ELi32ELi8ELi4ELi4ELi1ELb0ELi8EEEEEviiiPKiPKNT_11ScalarValueES6_PKNS7_11ScalarIndexESA_PKfPS8_
STT_FUNC         STB_WEAK   STV_DEFAULT    $__internal_22_$__cuda_sm70_warpsync
STT_FUNC         STB_LOCAL  STO_ENTRY      _ZN7sputnik48_GLOBAL__N__a430860f_15_cuda_spmm_cu_cc_6504ba7b16KernelWithBoundsINS_10SpmmConfigIf6float2S3_Li8ELi32ELi8ELi4ELi4ELi1ELb0ELi8EEEEEviiiPKiPKNT_11ScalarValueES6_PKNS7_11ScalarIndexESA_PKfPS8_
STT_FUNC         STB_WEAK   STV_DEFAULT    $__internal_23_$__cuda_sm70_warpsync
STT_FUNC         STB_LOCAL  STO_ENTRY      _ZN7sputnik48_GLOBAL__N__a430860f_15_cuda_spmm_cu_cc_6504ba7b6KernelINS_10SpmmConfigIf6float4S3_Li8ELi32ELi16ELi4ELi4ELi1ELb0ELi8EEEEEviiiPKiPKNT_11ScalarValueES6_PKNS7_11ScalarIndexESA_PKfPS8_
STT_FUNC         STB_WEAK   STV_DEFAULT    $__internal_24_$__cuda_sm70_warpsync
STT_FUNC         STB_LOCAL  STO_ENTRY      _ZN7sputnik48_GLOBAL__N__a430860f_15_cuda_spmm_cu_cc_6504ba7b16KernelWithBoundsINS_10SpmmConfigIf6float4S3_Li8ELi32ELi16ELi4ELi4ELi1ELb0ELi8EEEEEviiiPKiPKNT_11ScalarValueES6_PKNS7_11ScalarIndexESA_PKfPS8_
STT_FUNC         STB_WEAK   STV_DEFAULT    $__internal_25_$__cuda_sm70_warpsync
STT_FUNC         STB_LOCAL  STO_ENTRY      _ZN7sputnik48_GLOBAL__N__a430860f_15_cuda_spmm_cu_cc_6504ba7b6KernelINS_10SpmmConfigIf6float2fLi2ELi32ELi16ELi16ELi4ELi1ELb0ELi8EEEEEviiiPKiPKNT_11ScalarValueES6_PKNS7_11ScalarIndexESA_PKfPS8_
STT_FUNC         STB_WEAK   STV_DEFAULT    $__internal_26_$__cuda_sm70_warpsync
STT_FUNC         STB_LOCAL  STO_ENTRY      _ZN7sputnik48_GLOBAL__N__a430860f_15_cuda_spmm_cu_cc_6504ba7b16KernelWithBoundsINS_10SpmmConfigIf6float2fLi2ELi32ELi16ELi16ELi4ELi1ELb0ELi8EEEEEviiiPKiPKNT_11ScalarValueES6_PKNS7_11ScalarIndexESA_PKfPS8_
STT_FUNC         STB_WEAK   STV_DEFAULT    $__internal_27_$__cuda_sm70_warpsync
STT_FUNC         STB_LOCAL  STO_ENTRY      _ZN7sputnik48_GLOBAL__N__a430860f_15_cuda_spmm_cu_cc_6504ba7b6KernelINS_10SpmmConfigIf6float2S3_Li4ELi32ELi16ELi8ELi4ELi1ELb0ELi8EEEEEviiiPKiPKNT_11ScalarValueES6_PKNS7_11ScalarIndexESA_PKfPS8_
STT_FUNC         STB_WEAK   STV_DEFAULT    $__internal_28_$__cuda_sm70_warpsync
STT_FUNC         STB_LOCAL  STO_ENTRY      _ZN7sputnik48_GLOBAL__N__a430860f_15_cuda_spmm_cu_cc_6504ba7b16KernelWithBoundsINS_10SpmmConfigIf6float2S3_Li4ELi32ELi16ELi8ELi4ELi1ELb0ELi8EEEEEviiiPKiPKNT_11ScalarValueES6_PKNS7_11ScalarIndexESA_PKfPS8_
STT_FUNC         STB_WEAK   STV_DEFAULT    $__internal_29_$__cuda_sm70_warpsync
STT_FUNC         STB_LOCAL  STO_ENTRY      _ZN7sputnik48_GLOBAL__N__a430860f_15_cuda_spmm_cu_cc_6504ba7b6KernelINS_10SpmmConfigIf6float2S3_Li1ELi64ELi64ELi32ELi4ELi1ELb0ELi8EEEEEviiiPKiPKNT_11ScalarValueES6_PKNS7_11ScalarIndexESA_PKfPS8_
STT_FUNC         STB_LOCAL  STO_ENTRY      _ZN7sputnik48_GLOBAL__N__a430860f_15_cuda_spmm_cu_cc_6504ba7b16KernelWithBoundsINS_10SpmmConfigIf6float2S3_Li1ELi64ELi64ELi32ELi4ELi1ELb0ELi8EEEEEviiiPKiPKNT_11ScalarValueES6_PKNS7_11ScalarIndexESA_PKfPS8_
STT_FUNC         STB_LOCAL  STO_ENTRY      _ZN7sputnik48_GLOBAL__N__a430860f_15_cuda_spmm_cu_cc_6504ba7b6KernelINS_10SpmmConfigIf6float26float4Li1ELi64ELi128ELi32ELi4ELi1ELb0ELi8EEEEEviiiPKiPKNT_11ScalarValueES7_PKNS8_11ScalarIndexESB_PKfPS9_
STT_FUNC         STB_LOCAL  STO_ENTRY      _ZN7sputnik48_GLOBAL__N__a430860f_15_cuda_spmm_cu_cc_6504ba7b16KernelWithBoundsINS_10SpmmConfigIf6float26float4Li1ELi64ELi128ELi32ELi4ELi1ELb0ELi8EEEEEviiiPKiPKNT_11ScalarValueES7_PKNS8_11ScalarIndexESB_PKfPS9_
STT_FUNC         STB_LOCAL  STO_ENTRY      _ZN7sputnik48_GLOBAL__N__a430860f_15_cuda_spmm_cu_cc_6504ba7b6KernelINS_10SpmmConfigIf6float4S3_Li2ELi64ELi64ELi16ELi4ELi1ELb0ELi8EEEEEviiiPKiPKNT_11ScalarValueES6_PKNS7_11ScalarIndexESA_PKfPS8_
STT_FUNC         STB_WEAK   STV_DEFAULT    $__internal_30_$__cuda_sm70_warpsync
STT_FUNC         STB_LOCAL  STO_ENTRY      _ZN7sputnik48_GLOBAL__N__a430860f_15_cuda_spmm_cu_cc_6504ba7b16KernelWithBoundsINS_10SpmmConfigIf6float4S3_Li2ELi64ELi64ELi16ELi4ELi1ELb0ELi8EEEEEviiiPKiPKNT_11ScalarValueES6_PKNS7_11ScalarIndexESA_PKfPS8_
STT_FUNC         STB_WEAK   STV_DEFAULT    $__internal_31_$__cuda_sm70_warpsync
STT_FUNC         STB_LOCAL  STO_ENTRY      _ZN7sputnik48_GLOBAL__N__a430860f_15_cuda_spmm_cu_cc_6504ba7b6KernelINS_10SpmmConfigIff6float2Li1ELi32ELi64ELi32ELi4ELi1ELb0ELi8EEEEEviiiPKiPKNT_11ScalarValueES6_PKNS7_11ScalarIndexESA_PKfPS8_
STT_FUNC         STB_LOCAL  STO_ENTRY      _ZN7sputnik48_GLOBAL__N__a430860f_15_cuda_spmm_cu_cc_6504ba7b16KernelWithBoundsINS_10SpmmConfigIff6float2Li1ELi32ELi64ELi32ELi4ELi1ELb0ELi8EEEEEviiiPKiPKNT_11ScalarValueES6_PKNS7_11ScalarIndexESA_PKfPS8_
STT_FUNC         STB_LOCAL  STO_ENTRY      _ZN7sputnik48_GLOBAL__N__a430860f_15_cuda_spmm_cu_cc_6504ba7b6KernelINS_10SpmmConfigIf6float26float4Li2ELi32ELi64ELi16ELi4ELi1ELb0ELi8EEEEEviiiPKiPKNT_11ScalarValueES7_PKNS8_11ScalarIndexESB_PKfPS9_
STT_FUNC         STB_WEAK   STV_DEFAULT    $__internal_32_$__cuda_sm70_warpsync
STT_FUNC         STB_LOCAL  STO_ENTRY      _ZN7sputnik48_GLOBAL__N__a430860f_15_cuda_spmm_cu_cc_6504ba7b16KernelWithBoundsINS_10SpmmConfigIf6float26float4Li2ELi32ELi64ELi16ELi4ELi1ELb0ELi8EEEEEviiiPKiPKNT_11ScalarValueES7_PKNS8_11ScalarIndexESB_PKfPS9_
STT_FUNC         STB_WEAK   STV_DEFAULT    $__internal_33_$__cuda_sm70_warpsync
STT_FUNC         STB_LOCAL  STO_ENTRY      _ZN7sputnik48_GLOBAL__N__a430860f_15_cuda_spmm_cu_cc_6504ba7b6KernelINS_10SpmmConfigIff6float2Li2ELi16ELi32ELi16ELi4ELi1ELb0ELi8EEEEEviiiPKiPKNT_11ScalarValueES6_PKNS7_11ScalarIndexESA_PKfPS8_
STT_FUNC         STB_WEAK   STV_DEFAULT    $__internal_34_$__cuda_sm70_warpsync
STT_FUNC         STB_LOCAL  STO_ENTRY      _ZN7sputnik48_GLOBAL__N__a430860f_15_cuda_spmm_cu_cc_6504ba7b16KernelWithBoundsINS_10SpmmConfigIff6float2Li2ELi16ELi32ELi16ELi4ELi1ELb0ELi8EEEEEviiiPKiPKNT_11ScalarValueES6_PKNS7_11ScalarIndexESA_PKfPS8_
STT_FUNC         STB_WEAK   STV_DEFAULT    $__internal_35_$__cuda_sm70_warpsync
STT_FUNC         STB_LOCAL  STO_ENTRY      _ZN7sputnik48_GLOBAL__N__a430860f_15_cuda_spmm_cu_cc_6504ba7b6KernelINS_10SpmmConfigIff6float4Li4ELi8ELi32ELi8ELi4ELi1ELb0ELi8EEEEEviiiPKiPKNT_11ScalarValueES6_PKNS7_11ScalarIndexESA_PKfPS8_
STT_FUNC         STB_WEAK   STV_DEFAULT    $__internal_36_$__cuda_sm70_warpsync
STT_FUNC         STB_LOCAL  STO_ENTRY      _ZN7sputnik48_GLOBAL__N__a430860f_15_cuda_spmm_cu_cc_6504ba7b16KernelWithBoundsINS_10SpmmConfigIff6float4Li4ELi8ELi32ELi8ELi4ELi1ELb0ELi8EEEEEviiiPKiPKNT_11ScalarValueES6_PKNS7_11ScalarIndexESA_PKfPS8_
STT_FUNC         STB_WEAK   STV_DEFAULT    $__internal_37_$__cuda_sm70_warpsync
STT_FUNC         STB_LOCAL  STO_ENTRY      _ZN7sputnik48_GLOBAL__N__a430860f_15_cuda_spmm_cu_cc_6504ba7b6KernelINS_10SpmmConfigIf6float26float4Li4ELi16ELi32ELi8ELi4ELi1ELb0ELi8EEEEEviiiPKiPKNT_11ScalarValueES7_PKNS8_11ScalarIndexESB_PKfPS9_
STT_FUNC         STB_WEAK   STV_DEFAULT    $__internal_38_$__cuda_sm70_warpsync
STT_FUNC         STB_LOCAL  STO_ENTRY      _ZN7sputnik48_GLOBAL__N__a430860f_15_cuda_spmm_cu_cc_6504ba7b16KernelWithBoundsINS_10SpmmConfigIf6float26float4Li4ELi16ELi32ELi8ELi4ELi1ELb0ELi8EEEEEviiiPKiPKNT_11ScalarValueES7_PKNS8_11ScalarIndexESB_PKfPS9_
STT_FUNC         STB_WEAK   STV_DEFAULT    $__internal_39_$__cuda_sm70_warpsync
STT_FUNC         STB_LOCAL  STO_ENTRY      _ZN7sputnik48_GLOBAL__N__a430860f_15_cuda_spmm_cu_cc_6504ba7b6KernelINS_10SpmmConfigIf6float4S3_Li4ELi32ELi64ELi8ELi4ELi1ELb0ELi8EEEEEviiiPKiPKNT_11ScalarValueES6_PKNS7_11ScalarIndexESA_PKfPS8_
STT_FUNC         STB_WEAK   STV_DEFAULT    $__internal_40_$__cuda_sm70_warpsync
STT_FUNC         STB_LOCAL  STO_ENTRY      _ZN7sputnik48_GLOBAL__N__a430860f_15_cuda_spmm_cu_cc_6504ba7b16KernelWithBoundsINS_10SpmmConfigIf6float4S3_Li4ELi32ELi64ELi8ELi4ELi1ELb0ELi8EEEEEviiiPKiPKNT_11ScalarValueES6_PKNS7_11ScalarIndexESA_PKfPS8_
STT_FUNC         STB_WEAK   STV_DEFAULT    $__internal_41_$__cuda_sm70_warpsync
STT_FUNC         STB_LOCAL  STO_ENTRY      _ZN7sputnik48_GLOBAL__N__a430860f_15_cuda_spmm_cu_cc_6504ba7b6KernelINS_10SpmmConfigIf6float2S3_Li2ELi32ELi64ELi16ELi4ELi1ELb0ELi8EEEEEviiiPKiPKNT_11ScalarValueES6_PKNS7_11ScalarIndexESA_PKfPS8_
STT_FUNC         STB_WEAK   STV_DEFAULT    $__internal_42_$__cuda_sm70_warpsync
STT_FUNC         STB_LOCAL  STO_ENTRY      _ZN7sputnik48_GLOBAL__N__a430860f_15_cuda_spmm_cu_cc_6504ba7b16KernelWithBoundsINS_10SpmmConfigIf6float2S3_Li2ELi32ELi64ELi16ELi4ELi1ELb0ELi8EEEEEviiiPKiPKNT_11ScalarValueES6_PKNS7_11ScalarIndexESA_PKfPS8_
STT_FUNC         STB_WEAK   STV_DEFAULT    $__internal_43_$__cuda_sm70_warpsync
STT_FUNC         STB_LOCAL  STO_ENTRY      _ZN7sputnik48_GLOBAL__N__a430860f_15_cuda_spmm_cu_cc_6504ba7b6KernelINS_10SpmmConfigIfffLi1ELi32ELi64ELi32ELi4ELi1ELb0ELi8EEEEEviiiPKiPKNT_11ScalarValueES5_PKNS6_11ScalarIndexES9_PKfPS7_
STT_FUNC         STB_LOCAL  STO_ENTRY      _ZN7sputnik48_GLOBAL__N__a430860f_15_cuda_spmm_cu_cc_6504ba7b16KernelWithBoundsINS_10SpmmConfigIfffLi1ELi32ELi64ELi32ELi4ELi1ELb0ELi8EEEEEviiiPKiPKNT_11ScalarValueES5_PKNS6_11ScalarIndexES9_PKfPS7_
STT_FUNC         STB_LOCAL  STO_ENTRY      _ZN7sputnik48_GLOBAL__N__a430860f_15_cuda_spmm_cu_cc_6504ba7b6KernelINS_10SpmmConfigI7__half2NS_5half4ES4_Li2ELi32ELi32ELi16ELi4ELi1ELb0ELi8EEEEEviiiPKiPKNT_11ScalarValueES7_PKNS8_11ScalarIndexESB_PKfPS9_
STT_FUNC         STB_WEAK   STV_DEFAULT    $__internal_44_$__cuda_sm70_warpsync
STT_FUNC         STB_LOCAL  STO_ENTRY      _ZN7sputnik48_GLOBAL__N__a430860f_15_cuda_spmm_cu_cc_6504ba7b16KernelWithBoundsINS_10SpmmConfigI7__half2NS_5half4ES4_Li2ELi32ELi32ELi16ELi4ELi1ELb0ELi8EEEEEviiiPKiPKNT_11ScalarValueES7_PKNS8_11ScalarIndexESB_PKfPS9_
STT_FUNC         STB_WEAK   STV_DEFAULT    $__internal_45_$__cuda_sm70_warpsync
STT_FUNC         STB_LOCAL  STO_ENTRY      _ZN7sputnik48_GLOBAL__N__a430860f_15_cuda_spmm_cu_cc_6504ba7b6KernelINS_10SpmmConfigI7__half2NS_5half8ES4_Li4ELi32ELi32ELi8ELi4ELi0ELb0ELi8EEEEEviiiPKiPKNT_11ScalarValueES7_PKNS8_11ScalarIndexESB_PKfPS9_
STT_FUNC         STB_WEAK   STV_DEFAULT    $__internal_46_$__cuda_sm70_warpsync
STT_FUNC         STB_LOCAL  STO_ENTRY      _ZN7sputnik48_GLOBAL__N__a430860f_15_cuda_spmm_cu_cc_6504ba7b16KernelWithBoundsINS_10SpmmConfigI7__half2NS_5half8ES4_Li4ELi32ELi32ELi8ELi4ELi0ELb0ELi8EEEEEviiiPKiPKNT_11ScalarValueES7_PKNS8_11ScalarIndexESB_PKfPS9_
STT_FUNC         STB_WEAK   STV_DEFAULT    $__internal_47_$__cuda_sm70_warpsync
STT_FUNC         STB_LOCAL  STO_ENTRY      _ZN7sputnik48_GLOBAL__N__a430860f_15_cuda_spmm_cu_cc_6504ba7b6KernelINS_10SpmmConfigI7__half2NS_5half8ENS_5half4ELi4ELi32ELi16ELi8ELi4ELi0ELb0ELi8EEEEEviiiPKiPKNT_11ScalarValueES8_PKNS9_11ScalarIndexESC_PKfPSA_
STT_FUNC         STB_WEAK   STV_DEFAULT    $__internal_48_$__cuda_sm70_warpsync
STT_FUNC         STB_LOCAL  STO_ENTRY      _ZN7sputnik48_GLOBAL__N__a430860f_15_cuda_spmm_cu_cc_6504ba7b16KernelWithBoundsINS_10SpmmConfigI7__half2NS_5half8ENS_5half4ELi4ELi32ELi16ELi8ELi4ELi0ELb0ELi8EEEEEviiiPKiPKNT_11ScalarValueES8_PKNS9_11ScalarIndexESC_PKfPSA_
STT_FUNC         STB_WEAK   STV_DEFAULT    $__internal_49_$__cuda_sm70_warpsync
STT_FUNC         STB_LOCAL  STO_ENTRY      _ZN7sputnik48_GLOBAL__N__a430860f_15_cuda_spmm_cu_cc_6504ba7b6KernelINS_10SpmmConfigI7__half2NS_5half8ENS_5half4ELi4ELi32ELi16ELi8ELi4ELi1ELb0ELi8EEEEEviiiPKiPKNT_11ScalarValueES8_PKNS9_11ScalarIndexESC_PKfPSA_
STT_FUNC         STB_WEAK   STV_DEFAULT    $__internal_50_$__cuda_sm70_warpsync
STT_FUNC         STB_LOCAL  STO_ENTRY      _ZN7sputnik48_GLOBAL__N__a430860f_15_cuda_spmm_cu_cc_6504ba7b16KernelWithBoundsINS_10SpmmConfigI7__half2NS_5half8ENS_5half4ELi4ELi32ELi16ELi8ELi4ELi1ELb0ELi8EEEEEviiiPKiPKNT_11ScalarValueES8_PKNS9_11ScalarIndexESC_PKfPSA_
STT_FUNC         STB_WEAK   STV_DEFAULT    $__internal_51_$__cuda_sm70_warpsync
STT_FUNC         STB_LOCAL  STO_ENTRY      _ZN7sputnik48_GLOBAL__N__a430860f_15_cuda_spmm_cu_cc_6504ba7b6KernelINS_10SpmmConfigI7__half2NS_5half8ES3_Li4ELi32ELi8ELi8ELi4ELi0ELb0ELi8EEEEEviiiPKiPKNT_11ScalarValueES7_PKNS8_11ScalarIndexESB_PKfPS9_
STT_FUNC         STB_WEAK   STV_DEFAULT    $__internal_52_$__cuda_sm70_warpsync
STT_FUNC         STB_LOCAL  STO_ENTRY      _ZN7sputnik48_GLOBAL__N__a430860f_15_cuda_spmm_cu_cc_6504ba7b16KernelWithBoundsINS_10SpmmConfigI7__half2NS_5half8ES3_Li4ELi32ELi8ELi8ELi4ELi0ELb0ELi8EEEEEviiiPKiPKNT_11ScalarValueES7_PKNS8_11ScalarIndexESB_PKfPS9_
STT_FUNC         STB_WEAK   STV_DEFAULT    $__internal_53_$__cuda_sm70_warpsync
STT_FUNC         STB_LOCAL  STO_ENTRY      _ZN7sputnik48_GLOBAL__N__a430860f_15_cuda_spmm_cu_cc_6504ba7b6KernelINS_10SpmmConfigI7__half2NS_5half8ES3_Li4ELi32ELi8ELi8ELi4ELi1ELb0ELi8EEEEEviiiPKiPKNT_11ScalarValueES7_PKNS8_11ScalarIndexESB_PKfPS9_
STT_FUNC         STB_WEAK   STV_DEFAULT    $__internal_54_$__cuda_sm70_warpsync
STT_FUNC         STB_LOCAL  STO_ENTRY      _ZN7sputnik48_GLOBAL__N__a430860f_15_cuda_spmm_cu_cc_6504ba7b16KernelWithBoundsINS_10SpmmConfigI7__half2NS_5half8ES3_Li4ELi32ELi8ELi8ELi4ELi1ELb0ELi8EEEEEviiiPKiPKNT_11ScalarValueES7_PKNS8_11ScalarIndexESB_PKfPS9_
STT_FUNC         STB_WEAK   STV_DEFAULT    $__internal_55_$__cuda_sm70_warpsync
STT_FUNC         STB_LOCAL  STO_ENTRY      _ZN7sputnik48_GLOBAL__N__a430860f_15_cuda_spmm_cu_cc_6504ba7b6KernelINS_10SpmmConfigIfffLi1ELi32ELi32ELi32ELi4ELi1ELb0ELi8EEEEEviiiPKiPKNT_11ScalarValueES5_PKNS6_11ScalarIndexES9_PKfPS7_
STT_FUNC         STB_LOCAL  STO_ENTRY      _ZN7sputnik48_GLOBAL__N__a430860f_15_cuda_spmm_cu_cc_6504ba7b16KernelWithBoundsINS_10SpmmConfigIfffLi1ELi32ELi32ELi32ELi4ELi1ELb0ELi8EEEEEviiiPKiPKNT_11ScalarValueES5_PKNS6_11ScalarIndexES9_PKfPS7_
STT_FUNC         STB_LOCAL  STO_ENTRY      _ZN7sputnik48_GLOBAL__N__a430860f_15_cuda_spmm_cu_cc_6504ba7b6KernelINS_10SpmmConfigIf6float2S3_Li2ELi32ELi32ELi16ELi4ELi1ELb0ELi8EEEEEviiiPKiPKNT_11ScalarValueES6_PKNS7_11ScalarIndexESA_PKfPS8_
STT_FUNC         STB_WEAK   STV_DEFAULT    $__internal_56_$__cuda_sm70_warpsync
STT_FUNC         STB_LOCAL  STO_ENTRY      _ZN7sputnik48_GLOBAL__N__a430860f_15_cuda_spmm_cu_cc_6504ba7b16KernelWithBoundsINS_10SpmmConfigIf6float2S3_Li2ELi32ELi32ELi16ELi4ELi1ELb0ELi8EEEEEviiiPKiPKNT_11ScalarValueES6_PKNS7_11ScalarIndexESA_PKfPS8_
STT_FUNC         STB_WEAK   STV_DEFAULT    $__internal_57_$__cuda_sm70_warpsync
STT_FUNC         STB_LOCAL  STO_ENTRY      _ZN7sputnik48_GLOBAL__N__a430860f_15_cuda_spmm_cu_cc_6504ba7b6KernelINS_10SpmmConfigIf6float4S3_Li4ELi32ELi32ELi8ELi4ELi1ELb0ELi8EEEEEviiiPKiPKNT_11ScalarValueES6_PKNS7_11ScalarIndexESA_PKfPS8_
STT_FUNC         STB_WEAK   STV_DEFAULT    $__internal_58_$__cuda_sm70_warpsync
STT_FUNC         STB_LOCAL  STO_ENTRY      _ZN7sputnik48_GLOBAL__N__a430860f_15_cuda_spmm_cu_cc_6504ba7b16KernelWithBoundsINS_10SpmmConfigIf6float4S3_Li4ELi32ELi32ELi8ELi4ELi1ELb0ELi8EEEEEviiiPKiPKNT_11ScalarValueES6_PKNS7_11ScalarIndexESA_PKfPS8_
STT_FUNC         STB_WEAK   STV_DEFAULT    $__internal_59_$__cuda_sm70_warpsync
STT_FUNC         STB_LOCAL  STO_ENTRY      _ZN7sputnik48_GLOBAL__N__a430860f_15_cuda_spmm_cu_cc_6504ba7b6KernelINS_10SpmmConfigIf6float4S3_Li4ELi32ELi64ELi8ELi4ELi0ELb1ELi8EEEEEviiiPKiPKNT_11ScalarValueES6_PKNS7_11ScalarIndexESA_PKfPS8_
STT_FUNC         STB_WEAK   STV_DEFAULT    $__internal_60_$__cuda_sm70_warpsync
STT_FUNC         STB_LOCAL  STO_ENTRY      _ZN7sputnik48_GLOBAL__N__a430860f_15_cuda_spmm_cu_cc_6504ba7b16KernelWithBoundsINS_10SpmmConfigIf6float4S3_Li4ELi32ELi64ELi8ELi4ELi0ELb1ELi8EEEEEviiiPKiPKNT_11ScalarValueES6_PKNS7_11ScalarIndexESA_PKfPS8_
STT_FUNC         STB_WEAK   STV_DEFAULT    $__internal_61_$__cuda_sm70_warpsync
STT_FUNC         STB_LOCAL  STO_ENTRY      _ZN7sputnik48_GLOBAL__N__a430860f_15_cuda_spmm_cu_cc_6504ba7b6KernelINS_10SpmmConfigIf6float4S3_Li4ELi32ELi32ELi8ELi4ELi0ELb0ELi8EEEEEviiiPKiPKNT_11ScalarValueES6_PKNS7_11ScalarIndexESA_PKfPS8_
STT_FUNC         STB_WEAK   STV_DEFAULT    $__internal_62_$__cuda_sm70_warpsync
STT_FUNC         STB_LOCAL  STO_ENTRY      _ZN7sputnik48_GLOBAL__N__a430860f_15_cuda_spmm_cu_cc_6504ba7b16KernelWithBoundsINS_10SpmmConfigIf6float4S3_Li4ELi32ELi32ELi8ELi4ELi0ELb0ELi8EEEEEviiiPKiPKNT_11ScalarValueES6_PKNS7_11ScalarIndexESA_PKfPS8_
STT_FUNC         STB_WEAK   STV_DEFAULT    $__internal_63_$__cuda_sm70_warpsync
STT_FUNC         STB_LOCAL  STO_ENTRY      _ZN7sputnik48_GLOBAL__N__a430860f_15_cuda_spmm_cu_cc_6504ba7b6KernelINS_10SpmmConfigIf6float46float2Li4ELi32ELi16ELi8ELi4ELi1ELb0ELi8EEEEEviiiPKiPKNT_11ScalarValueES7_PKNS8_11ScalarIndexESB_PKfPS9_
STT_FUNC         STB_WEAK   STV_DEFAULT    $__internal_64_$__cuda_sm70_warpsync
STT_FUNC         STB_LOCAL  STO_ENTRY      _ZN7sputnik48_GLOBAL__N__a430860f_15_cuda_spmm_cu_cc_6504ba7b16KernelWithBoundsINS_10SpmmConfigIf6float46float2Li4ELi32ELi16ELi8ELi4ELi1ELb0ELi8EEEEEviiiPKiPKNT_11ScalarValueES7_PKNS8_11ScalarIndexESB_PKfPS9_
STT_FUNC         STB_WEAK   STV_DEFAULT    $__internal_65_$__cuda_sm70_warpsync
STT_FUNC         STB_LOCAL  STO_ENTRY      _ZN7sputnik48_GLOBAL__N__a430860f_15_cuda_spmm_cu_cc_6504ba7b6KernelINS_10SpmmConfigIf6float46float2Li4ELi32ELi16ELi8ELi4ELi0ELb0ELi8EEEEEviiiPKiPKNT_11ScalarValueES7_PKNS8_11ScalarIndexESB_PKfPS9_
STT_FUNC         STB_WEAK   STV_DEFAULT    $__internal_66_$__cuda_sm70_warpsync
STT_FUNC         STB_LOCAL  STO_ENTRY      _ZN7sputnik48_GLOBAL__N__a430860f_15_cuda_spmm_cu_cc_6504ba7b16KernelWithBoundsINS_10SpmmConfigIf6float46float2Li4ELi32ELi16ELi8ELi4ELi0ELb0ELi8EEEEEviiiPKiPKNT_11ScalarValueES7_PKNS8_11ScalarIndexESB_PKfPS9_
STT_FUNC         STB_WEAK   STV_DEFAULT    $__internal_67_$__cuda_sm70_warpsync
STT_FUNC         STB_LOCAL  STO_ENTRY      _ZN7sputnik48_GLOBAL__N__a430860f_15_cuda_spmm_cu_cc_6504ba7b6KernelINS_10SpmmConfigIf6float4fLi4ELi32ELi8ELi8ELi4ELi1ELb0ELi8EEEEEviiiPKiPKNT_11ScalarValueES6_PKNS7_11ScalarIndexESA_PKfPS8_
STT_FUNC         STB_WEAK   STV_DEFAULT    $__internal_68_$__cuda_sm70_warpsync
STT_FUNC         STB_LOCAL  STO_ENTRY      _ZN7sputnik48_GLOBAL__N__a430860f_15_cuda_spmm_cu_cc_6504ba7b16KernelWithBoundsINS_10SpmmConfigIf6float4fLi4ELi32ELi8ELi8ELi4ELi1ELb0ELi8EEEEEviiiPKiPKNT_11ScalarValueES6_PKNS7_11ScalarIndexESA_PKfPS8_
STT_FUNC         STB_WEAK   STV_DEFAULT    $__internal_69_$__cuda_sm70_warpsync
STT_FUNC         STB_LOCAL  STO_ENTRY      _ZN7sputnik48_GLOBAL__N__a430860f_15_cuda_spmm_cu_cc_6504ba7b6KernelINS_10SpmmConfigIf6float4fLi4ELi32ELi8ELi8ELi4ELi0ELb0ELi8EEEEEviiiPKiPKNT_11ScalarValueES6_PKNS7_11ScalarIndexESA_PKfPS8_
STT_FUNC         STB_WEAK   STV_DEFAULT    $__internal_70_$__cuda_sm70_warpsync
STT_FUNC         STB_LOCAL  STO_ENTRY      _ZN7sputnik48_GLOBAL__N__a430860f_15_cuda_spmm_cu_cc_6504ba7b16KernelWithBoundsINS_10SpmmConfigIf6float4fLi4ELi32ELi8ELi8ELi4ELi0ELb0ELi8EEEEEviiiPKiPKNT_11ScalarValueES6_PKNS7_11ScalarIndexESA_PKfPS8_
STT_FUNC         STB_WEAK   STV_DEFAULT    $__internal_71_$__cuda_sm70_warpsync
STT_FUNC         STB_LOCAL  STO_ENTRY      _ZN7sputnik48_GLOBAL__N__a430860f_15_cuda_spmm_cu_cc_6504ba7b6KernelINS_10SpmmConfigIf6float26float4Li4ELi16ELi32ELi8ELi4ELi0ELb0ELi8EEEEEviiiPKiPKNT_11ScalarValueES7_PKNS8_11ScalarIndexESB_PKfPS9_
STT_FUNC         STB_WEAK   STV_DEFAULT    $__internal_72_$__cuda_sm70_warpsync
STT_FUNC         STB_LOCAL  STO_ENTRY      _ZN7sputnik48_GLOBAL__N__a430860f_15_cuda_spmm_cu_cc_6504ba7b16KernelWithBoundsINS_10SpmmConfigIf6float26float4Li4ELi16ELi32ELi8ELi4ELi0ELb0ELi8EEEEEviiiPKiPKNT_11ScalarValueES7_PKNS8_11ScalarIndexESB_PKfPS9_
STT_FUNC         STB_WEAK   STV_DEFAULT    $__internal_73_$__cuda_sm70_warpsync
STT_FUNC         STB_LOCAL  STO_ENTRY      _ZN7sputnik48_GLOBAL__N__a430860f_15_cuda_spmm_cu_cc_6504ba7b6KernelINS_10SpmmConfigIff6float4Li4ELi8ELi32ELi8ELi4ELi0ELb0ELi8EEEEEviiiPKiPKNT_11ScalarValueES6_PKNS7_11ScalarIndexESA_PKfPS8_
STT_FUNC         STB_WEAK   STV_DEFAULT    $__internal_74_$__cuda_sm70_warpsync
STT_FUNC         STB_LOCAL  STO_ENTRY      _ZN7sputnik48_GLOBAL__N__a430860f_15_cuda_spmm_cu_cc_6504ba7b16KernelWithBoundsINS_10SpmmConfigIff6float4Li4ELi8ELi32ELi8ELi4ELi0ELb0ELi8EEEEEviiiPKiPKNT_11ScalarValueES6_PKNS7_11ScalarIndexESA_PKfPS8_
STT_FUNC         STB_WEAK   STV_DEFAULT    $__internal_75_$__cuda_sm70_warpsync
STT_FUNC         STB_LOCAL  STO_ENTRY      _ZN7sputnik48_GLOBAL__N__a430860f_15_cuda_spmm_cu_cc_6504ba7b6KernelINS_10SpmmConfigIff6float4Li1ELi32ELi128ELi32ELi4ELi1ELb0ELi8EEEEEviiiPKiPKNT_11ScalarValueES6_PKNS7_11ScalarIndexESA_PKfPS8_
STT_FUNC         STB_LOCAL  STO_ENTRY      _ZN7sputnik48_GLOBAL__N__a430860f_15_cuda_spmm_cu_cc_6504ba7b16KernelWithBoundsINS_10SpmmConfigIff6float4Li1ELi32ELi128ELi32ELi4ELi1ELb0ELi8EEEEEviiiPKiPKNT_11ScalarValueES6_PKNS7_11ScalarIndexESA_PKfPS8_